; Function Attrs: nounwind uwtable
define internal void @SHA1_dealloc(ptr noundef %0) #0 {
  %2 = getelementptr inbounds nuw i8, ptr %0, i64 32
  %3 = load ptr, ptr %2, align 8, !tbaa !34
  tail call void @python_hashlib_Hacl_Hash_SHA1_free(ptr noundef %3) #3
  %4 = getelementptr i8, ptr %0, i64 8
  %.val = load ptr, ptr %4, align 8, !tbaa !17
  tail call void @PyObject_GC_UnTrack(ptr noundef %0) #3
  tail call void @PyObject_GC_Del(ptr noundef %0) #3
  %5 = load i32, ptr %.val, align 8, !tbaa !10
  %.not.i = icmp sgt i32 %5, -1
  br i1 %.not.i, label %6, label %Py_DECREF.exit

6:                                                ; preds = %1
  %7 = add nsw i32 %5, -1
  store i32 %7, ptr %.val, align 8, !tbaa !10
  %8 = icmp eq i32 %7, 0
  br i1 %8, label %9, label %Py_DECREF.exit

9:                                                ; preds = %6
  tail call void @_Py_Dealloc(ptr noundef nonnull %.val) #3
  br label %Py_DECREF.exit

Py_DECREF.exit:                                   ; preds = %1, %6, %9
  ret void
}